; Function Attrs: mustprogress uwtable
define hidden void @_ZNK4cvc58internal6theory5arith6linear18ConstraintDatabase27outputUnateInequalityLemmasERSt6vectorINS0_9TrustNodeESaIS6_EE(ptr nocapture noundef nonnull readonly align 8 dereferenceable(488) %this, ptr noundef nonnull align 8 dereferenceable(24) %lemmas) local_unnamed_addr #4 align 2 {
entry:
  %d_varDatabases = getelementptr inbounds i8, ptr %this, i64 16
  %_M_finish.i = getelementptr inbounds i8, ptr %this, i64 24
  %0 = load ptr, ptr %_M_finish.i, align 8
  %1 = load ptr, ptr %d_varDatabases, align 8
  %sub.ptr.lhs.cast.i = ptrtoint ptr %0 to i64
  %sub.ptr.rhs.cast.i = ptrtoint ptr %1 to i64
  %sub.ptr.sub.i = sub i64 %sub.ptr.lhs.cast.i, %sub.ptr.rhs.cast.i
  %sub.ptr.div.i = lshr exact i64 %sub.ptr.sub.i, 3
  %conv = trunc i64 %sub.ptr.div.i to i32
  %cmp3.not = icmp eq i32 %conv, 0
  br i1 %cmp3.not, label %for.end, label %for.body

for.body:                                         ; preds = %entry, %for.body
  %v.04 = phi i32 [ %inc, %for.body ], [ 0, %entry ]
  tail call void @_ZNK4cvc58internal6theory5arith6linear18ConstraintDatabase27outputUnateInequalityLemmasERSt6vectorINS0_9TrustNodeESaIS6_EEj(ptr noundef nonnull align 8 dereferenceable(488) %this, ptr noundef nonnull align 8 dereferenceable(24) %lemmas, i32 noundef %v.04)
  %inc = add nuw i32 %v.04, 1
  %exitcond.not = icmp eq i32 %inc, %conv
  br i1 %exitcond.not, label %for.end, label %for.body, !llvm.loop !335

for.end:                                          ; preds = %for.body, %entry
  ret void
}